; Function Attrs: nounwind uwtable
define noalias noundef ptr @Saig_ManReturnFailingState(ptr noundef %0, ptr noundef readonly captures(none) %1, i32 noundef %2) local_unnamed_addr #0 {
  %4 = tail call i32 @Saig_ManVerifyCexNoClear(ptr noundef %0, ptr noundef %1)
  %5 = icmp eq i32 %4, 0
  br i1 %5, label %6, label %7

6:                                                ; preds = %3
  tail call void @Aig_ManCleanMarkB(ptr noundef %0) #9
  %puts = tail call i32 @puts(ptr nonnull dereferenceable(1) @str.2)
  br label %95

7:                                                ; preds = %3
  %8 = getelementptr i8, ptr %0, i64 104
  %.val31 = load i32, ptr %8, align 8, !tbaa !39
  %9 = tail call noalias dereferenceable_or_null(16) ptr @malloc(i64 noundef 16) #11
  %10 = add i32 %.val31, -1
  %or.cond.i = icmp ult i32 %10, 15
  %spec.store.select.i = select i1 %or.cond.i, i32 16, i32 %.val31
  %11 = getelementptr inbounds nuw i8, ptr %9, i64 4
  store i32 0, ptr %11, align 4, !tbaa !42
  store i32 %spec.store.select.i, ptr %9, align 8, !tbaa !51
  %.not.i = icmp eq i32 %spec.store.select.i, 0
  br i1 %.not.i, label %Vec_IntAlloc.exit, label %12

12:                                               ; preds = %7
  %13 = sext i32 %spec.store.select.i to i64
  %14 = shl nsw i64 %13, 2
  %15 = tail call noalias ptr @malloc(i64 noundef %14) #11
  br label %Vec_IntAlloc.exit

Vec_IntAlloc.exit:                                ; preds = %7, %12
  %16 = phi ptr [ %15, %12 ], [ null, %7 ]
  %17 = getelementptr inbounds nuw i8, ptr %9, i64 8
  store ptr %16, ptr %17, align 8, !tbaa !45
  %.not = icmp eq i32 %2, 0
  %18 = icmp sgt i32 %.val31, 0
  br i1 %.not, label %.preheader, label %.preheader40

.preheader40:                                     ; preds = %Vec_IntAlloc.exit
  br i1 %18, label %.lr.ph, label %.critedge

.lr.ph:                                           ; preds = %.preheader40
  %19 = getelementptr inbounds nuw i8, ptr %0, i64 24
  %20 = getelementptr i8, ptr %0, i64 112
  br label %23

.preheader:                                       ; preds = %Vec_IntAlloc.exit
  br i1 %18, label %.lr.ph46, label %.critedge

.lr.ph46:                                         ; preds = %.preheader
  %21 = getelementptr inbounds nuw i8, ptr %0, i64 16
  %22 = getelementptr i8, ptr %0, i64 108
  br label %59

23:                                               ; preds = %.lr.ph, %Vec_IntPush.exit
  %24 = phi ptr [ %16, %.lr.ph ], [ %.pre.i49, %Vec_IntPush.exit ]
  %.02643 = phi i32 [ 0, %.lr.ph ], [ %57, %Vec_IntPush.exit ]
  %25 = load ptr, ptr %19, align 8, !tbaa !37
  %.val28 = load i32, ptr %20, align 8, !tbaa !36
  %26 = add nsw i32 %.val28, %.02643
  %27 = getelementptr i8, ptr %25, i64 8
  %.val27 = load ptr, ptr %27, align 8, !tbaa !29
  %28 = sext i32 %26 to i64
  %29 = getelementptr inbounds ptr, ptr %.val27, i64 %28
  %30 = load ptr, ptr %29, align 8, !tbaa !30
  %31 = getelementptr inbounds nuw i8, ptr %30, i64 24
  %32 = load i64, ptr %31, align 8
  %33 = trunc i64 %32 to i32
  %34 = lshr i32 %33, 5
  %35 = and i32 %34, 1
  %36 = load i32, ptr %11, align 4, !tbaa !42
  %37 = load i32, ptr %9, align 8, !tbaa !51
  %38 = icmp eq i32 %36, %37
  br i1 %38, label %39, label %Vec_IntPush.exit

39:                                               ; preds = %23
  %40 = icmp slt i32 %36, 16
  br i1 %40, label %41, label %46

41:                                               ; preds = %39
  %.not9.i.i = icmp eq ptr %24, null
  br i1 %.not9.i.i, label %44, label %42

42:                                               ; preds = %41
  %43 = tail call dereferenceable_or_null(64) ptr @realloc(ptr noundef nonnull %24, i64 noundef 64) #12
  br label %Vec_IntPush.exit.sink.split

44:                                               ; preds = %41
  %45 = tail call noalias dereferenceable_or_null(64) ptr @malloc(i64 noundef 64) #11
  br label %Vec_IntPush.exit.sink.split

46:                                               ; preds = %39
  %47 = shl nuw nsw i32 %36, 1
  %.not9.i9.i = icmp eq ptr %24, null
  %48 = zext nneg i32 %47 to i64
  %49 = shl nuw nsw i64 %48, 2
  br i1 %.not9.i9.i, label %52, label %50

50:                                               ; preds = %46
  %51 = tail call ptr @realloc(ptr noundef nonnull %24, i64 noundef %49) #12
  br label %Vec_IntPush.exit.sink.split

52:                                               ; preds = %46
  %53 = tail call noalias ptr @malloc(i64 noundef %49) #11
  br label %Vec_IntPush.exit.sink.split

Vec_IntPush.exit.sink.split:                      ; preds = %50, %52, %42, %44
  %.sink53 = phi ptr [ %43, %42 ], [ %45, %44 ], [ %51, %50 ], [ %53, %52 ]
  %.sink = phi i32 [ 16, %42 ], [ 16, %44 ], [ %47, %50 ], [ %47, %52 ]
  store ptr %.sink53, ptr %17, align 8, !tbaa !45
  store i32 %.sink, ptr %9, align 8, !tbaa !51
  br label %Vec_IntPush.exit

Vec_IntPush.exit:                                 ; preds = %Vec_IntPush.exit.sink.split, %23
  %.pre.i49 = phi ptr [ %24, %23 ], [ %.sink53, %Vec_IntPush.exit.sink.split ]
  %54 = add nsw i32 %36, 1
  store i32 %54, ptr %11, align 4, !tbaa !42
  %55 = sext i32 %36 to i64
  %56 = getelementptr inbounds i32, ptr %.pre.i49, i64 %55
  store i32 %35, ptr %56, align 4, !tbaa !21
  %57 = add nuw nsw i32 %.02643, 1
  %.val30 = load i32, ptr %8, align 8, !tbaa !39
  %58 = icmp slt i32 %57, %.val30
  br i1 %58, label %23, label %.critedge, !llvm.loop !76

59:                                               ; preds = %.lr.ph46, %Vec_IntPush.exit39
  %60 = phi ptr [ %16, %.lr.ph46 ], [ %.pre.i3551, %Vec_IntPush.exit39 ]
  %.145 = phi i32 [ 0, %.lr.ph46 ], [ %93, %Vec_IntPush.exit39 ]
  %61 = load ptr, ptr %21, align 8, !tbaa !25
  %.val32 = load i32, ptr %22, align 4, !tbaa !48
  %62 = add nsw i32 %.val32, %.145
  %63 = getelementptr i8, ptr %61, i64 8
  %.val = load ptr, ptr %63, align 8, !tbaa !29
  %64 = sext i32 %62 to i64
  %65 = getelementptr inbounds ptr, ptr %.val, i64 %64
  %66 = load ptr, ptr %65, align 8, !tbaa !30
  %67 = getelementptr inbounds nuw i8, ptr %66, i64 24
  %68 = load i64, ptr %67, align 8
  %69 = trunc i64 %68 to i32
  %70 = lshr i32 %69, 5
  %71 = and i32 %70, 1
  %72 = load i32, ptr %11, align 4, !tbaa !42
  %73 = load i32, ptr %9, align 8, !tbaa !51
  %74 = icmp eq i32 %72, %73
  br i1 %74, label %75, label %Vec_IntPush.exit39

75:                                               ; preds = %59
  %76 = icmp slt i32 %72, 16
  br i1 %76, label %77, label %82

77:                                               ; preds = %75
  %.not9.i.i37 = icmp eq ptr %60, null
  br i1 %.not9.i.i37, label %80, label %78

78:                                               ; preds = %77
  %79 = tail call dereferenceable_or_null(64) ptr @realloc(ptr noundef nonnull %60, i64 noundef 64) #12
  br label %Vec_IntPush.exit39.sink.split

80:                                               ; preds = %77
  %81 = tail call noalias dereferenceable_or_null(64) ptr @malloc(i64 noundef 64) #11
  br label %Vec_IntPush.exit39.sink.split

82:                                               ; preds = %75
  %83 = shl nuw nsw i32 %72, 1
  %.not9.i9.i36 = icmp eq ptr %60, null
  %84 = zext nneg i32 %83 to i64
  %85 = shl nuw nsw i64 %84, 2
  br i1 %.not9.i9.i36, label %88, label %86

86:                                               ; preds = %82
  %87 = tail call ptr @realloc(ptr noundef nonnull %60, i64 noundef %85) #12
  br label %Vec_IntPush.exit39.sink.split

88:                                               ; preds = %82
  %89 = tail call noalias ptr @malloc(i64 noundef %85) #11
  br label %Vec_IntPush.exit39.sink.split

Vec_IntPush.exit39.sink.split:                    ; preds = %86, %88, %78, %80
  %.sink55 = phi ptr [ %79, %78 ], [ %81, %80 ], [ %87, %86 ], [ %89, %88 ]
  %.sink54 = phi i32 [ 16, %78 ], [ 16, %80 ], [ %83, %86 ], [ %83, %88 ]
  store ptr %.sink55, ptr %17, align 8, !tbaa !45
  store i32 %.sink54, ptr %9, align 8, !tbaa !51
  br label %Vec_IntPush.exit39

Vec_IntPush.exit39:                               ; preds = %Vec_IntPush.exit39.sink.split, %59
  %.pre.i3551 = phi ptr [ %60, %59 ], [ %.sink55, %Vec_IntPush.exit39.sink.split ]
  %90 = add nsw i32 %72, 1
  store i32 %90, ptr %11, align 4, !tbaa !42
  %91 = sext i32 %72 to i64
  %92 = getelementptr inbounds i32, ptr %.pre.i3551, i64 %91
  store i32 %71, ptr %92, align 4, !tbaa !21
  %93 = add nuw nsw i32 %.145, 1
  %.val29 = load i32, ptr %8, align 8, !tbaa !39
  %94 = icmp slt i32 %93, %.val29
  br i1 %94, label %59, label %.critedge, !llvm.loop !77

.critedge:                                        ; preds = %Vec_IntPush.exit, %Vec_IntPush.exit39, %.preheader40, %.preheader
  tail call void @Aig_ManCleanMarkB(ptr noundef nonnull %0) #9
  br label %95

95:                                               ; preds = %.critedge, %6
  %.0 = phi ptr [ null, %6 ], [ %9, %.critedge ]
  ret ptr %.0
}